target datalayout = "e-m:e-p270:32:32-p271:32:32-p272:64:64-i64:64-i128:128-f80:128-n8:16:32:64-S128"
target triple = "x86_64-unknown-linux-gnu"

%struct.NetClientState = type { ptr, i32, %union.anon, ptr, ptr, ptr, ptr, [256 x i8], i8, ptr, i32, i8, i32, i32, i8, i8, i8, %union.anon.0 }
%union.anon = type { %struct.QTailQLink }
%struct.QTailQLink = type { ptr, ptr }
%union.anon.0 = type { %struct.QTailQLink }

@error_abort = external global ptr, align 8
@.str.7 = private unnamed_addr constant [1 x i8] zeroinitializer, align 1
@.str.9 = private unnamed_addr constant [41 x i8] c"../qemu/hw/core/qdev-properties-system.c\00", align 1
@.str.10 = private unnamed_addr constant [22 x i8] c"!value || value->name\00", align 1
@__PRETTY_FUNCTION__.qdev_prop_set_netdev = private unnamed_addr constant [73 x i8] c"void qdev_prop_set_netdev(DeviceState *, const char *, NetClientState *)\00", align 1

; Function Attrs: nounwind sspstrong uwtable
define dso_local void @qdev_prop_set_netdev(ptr noundef %dev, ptr noundef %name, ptr noundef %value) #0 {
entry:
  %dev.addr = alloca ptr, align 8
  %name.addr = alloca ptr, align 8
  %value.addr = alloca ptr, align 8
  store ptr %dev, ptr %dev.addr, align 8
  store ptr %name, ptr %name.addr, align 8
  store ptr %value, ptr %value.addr, align 8
  %0 = load ptr, ptr %value.addr, align 8
  %tobool = icmp ne ptr %0, null
  br i1 %tobool, label %lor.lhs.false, label %if.then

lor.lhs.false:                                    ; preds = %entry
  %1 = load ptr, ptr %value.addr, align 8
  %name1 = getelementptr inbounds %struct.NetClientState, ptr %1, i32 0, i32 6
  %2 = load ptr, ptr %name1, align 8
  %tobool2 = icmp ne ptr %2, null
  br i1 %tobool2, label %if.then, label %if.else

if.then:                                          ; preds = %lor.lhs.false, %entry
  br label %if.end

if.else:                                          ; preds = %lor.lhs.false
  call void @__assert_fail(ptr noundef @.str.10, ptr noundef @.str.9, i32 noundef 538, ptr noundef @__PRETTY_FUNCTION__.qdev_prop_set_netdev) #9
  unreachable

if.end:                                           ; preds = %if.then
  %3 = load ptr, ptr %dev.addr, align 8
  %4 = load ptr, ptr %name.addr, align 8
  %5 = load ptr, ptr %value.addr, align 8
  %tobool3 = icmp ne ptr %5, null
  br i1 %tobool3, label %cond.true, label %cond.false

cond.true:                                        ; preds = %if.end
  %6 = load ptr, ptr %value.addr, align 8
  %name4 = getelementptr inbounds %struct.NetClientState, ptr %6, i32 0, i32 6
  %7 = load ptr, ptr %name4, align 8
  br label %cond.end

cond.false:                                       ; preds = %if.end
  br label %cond.end

cond.end:                                         ; preds = %cond.false, %cond.true
  %cond = phi ptr [ %7, %cond.true ], [ @.str.7, %cond.false ]
  %call = call zeroext i1 @object_property_set_str(ptr noundef %3, ptr noundef %4, ptr noundef %cond, ptr noundef @error_abort)
  ret void
}